; Function Attrs: mustprogress nofree nounwind willreturn memory(read, inaccessiblemem: none) uwtable
define hidden noundef range(i32 0, 2) i32 @_ZNK11OpenImageIO6v3_1_010FitsOutput8supportsENS0_17basic_string_viewIcSt11char_traitsIcEEE(ptr nonnull readnone align 8 captures(none) %0, ptr noundef readonly captures(none) %1) unnamed_addr #6 align 2 personality ptr @__gxx_personality_v0 {
  %3 = load ptr, ptr %1, align 8, !tbaa !59
  %4 = getelementptr inbounds nuw i8, ptr %1, i64 8
  %5 = load i64, ptr %4, align 8, !tbaa !61
  switch i64 %5, label %_ZN11OpenImageIO6v3_1_0eqENS0_17basic_string_viewIcSt11char_traitsIcEEES4_.exit [
    i64 10, label %_ZNSt11char_traitsIcE7compareEPKcS2_m.exit.i.i
    i64 5, label %_ZNSt11char_traitsIcE7compareEPKcS2_m.exit.i.i1
    i64 9, label %_ZNSt11char_traitsIcE7compareEPKcS2_m.exit.i.i6
    i64 13, label %_ZNSt11char_traitsIcE7compareEPKcS2_m.exit.i.i11
    i64 7, label %_ZNSt11char_traitsIcE7compareEPKcS2_m.exit.i.i16
    i64 18, label %_ZNSt11char_traitsIcE7compareEPKcS2_m.exit.i.i21
    i64 4, label %_ZNSt11char_traitsIcE7compareEPKcS2_m.exit.i.i26
  ]

_ZNSt11char_traitsIcE7compareEPKcS2_m.exit.i.i:   ; preds = %2
  %bcmp.i = tail call i32 @bcmp(ptr noundef nonnull dereferenceable(10) %3, ptr noundef nonnull dereferenceable(10) @.str.1, i64 10)
  %.not.i.i = icmp eq i32 %bcmp.i, 0
  br label %_ZN11OpenImageIO6v3_1_0eqENS0_17basic_string_viewIcSt11char_traitsIcEEES4_.exit

_ZNSt11char_traitsIcE7compareEPKcS2_m.exit.i.i1:  ; preds = %2
  %bcmp.i2 = tail call i32 @bcmp(ptr %3, ptr nonnull @.str.2, i64 %5)
  %.not.i.i3 = icmp eq i32 %bcmp.i2, 0
  br label %_ZN11OpenImageIO6v3_1_0eqENS0_17basic_string_viewIcSt11char_traitsIcEEES4_.exit

_ZNSt11char_traitsIcE7compareEPKcS2_m.exit.i.i6:  ; preds = %2
  %bcmp.i7 = tail call i32 @bcmp(ptr %3, ptr nonnull @.str.3, i64 %5)
  %.not.i.i8 = icmp eq i32 %bcmp.i7, 0
  br label %_ZN11OpenImageIO6v3_1_0eqENS0_17basic_string_viewIcSt11char_traitsIcEEES4_.exit

_ZNSt11char_traitsIcE7compareEPKcS2_m.exit.i.i11: ; preds = %2
  %bcmp.i12 = tail call i32 @bcmp(ptr %3, ptr nonnull @.str.4, i64 %5)
  %.not.i.i13 = icmp eq i32 %bcmp.i12, 0
  br label %_ZN11OpenImageIO6v3_1_0eqENS0_17basic_string_viewIcSt11char_traitsIcEEES4_.exit

_ZNSt11char_traitsIcE7compareEPKcS2_m.exit.i.i16: ; preds = %2
  %bcmp.i17 = tail call i32 @bcmp(ptr %3, ptr nonnull @.str.5, i64 %5)
  %.not.i.i18 = icmp eq i32 %bcmp.i17, 0
  br label %_ZN11OpenImageIO6v3_1_0eqENS0_17basic_string_viewIcSt11char_traitsIcEEES4_.exit

_ZNSt11char_traitsIcE7compareEPKcS2_m.exit.i.i21: ; preds = %2
  %bcmp.i22 = tail call i32 @bcmp(ptr %3, ptr nonnull @.str.6, i64 %5)
  %.not.i.i23 = icmp eq i32 %bcmp.i22, 0
  br label %_ZN11OpenImageIO6v3_1_0eqENS0_17basic_string_viewIcSt11char_traitsIcEEES4_.exit

_ZNSt11char_traitsIcE7compareEPKcS2_m.exit.i.i26: ; preds = %2
  %bcmp.i27 = tail call i32 @bcmp(ptr %3, ptr nonnull @.str.7, i64 %5)
  %.not.i.i28 = icmp eq i32 %bcmp.i27, 0
  br i1 %.not.i.i28, label %_ZN11OpenImageIO6v3_1_0eqENS0_17basic_string_viewIcSt11char_traitsIcEEES4_.exit, label %_ZNSt11char_traitsIcE7compareEPKcS2_m.exit.i.i31

_ZNSt11char_traitsIcE7compareEPKcS2_m.exit.i.i31: ; preds = %_ZNSt11char_traitsIcE7compareEPKcS2_m.exit.i.i26
  %bcmp.i32 = tail call i32 @bcmp(ptr noundef nonnull dereferenceable(4) %3, ptr noundef nonnull dereferenceable(4) @.str.8, i64 4)
  %.not.i.i33 = icmp eq i32 %bcmp.i32, 0
  br label %_ZN11OpenImageIO6v3_1_0eqENS0_17basic_string_viewIcSt11char_traitsIcEEES4_.exit

_ZN11OpenImageIO6v3_1_0eqENS0_17basic_string_viewIcSt11char_traitsIcEEES4_.exit: ; preds = %_ZNSt11char_traitsIcE7compareEPKcS2_m.exit.i.i21, %_ZNSt11char_traitsIcE7compareEPKcS2_m.exit.i.i16, %_ZNSt11char_traitsIcE7compareEPKcS2_m.exit.i.i11, %_ZNSt11char_traitsIcE7compareEPKcS2_m.exit.i.i6, %_ZNSt11char_traitsIcE7compareEPKcS2_m.exit.i.i1, %_ZNSt11char_traitsIcE7compareEPKcS2_m.exit.i.i, %_ZNSt11char_traitsIcE7compareEPKcS2_m.exit.i.i31, %2, %_ZNSt11char_traitsIcE7compareEPKcS2_m.exit.i.i26
  %.shrunk = phi i1 [ true, %_ZNSt11char_traitsIcE7compareEPKcS2_m.exit.i.i26 ], [ false, %2 ], [ %.not.i.i33, %_ZNSt11char_traitsIcE7compareEPKcS2_m.exit.i.i31 ], [ %.not.i.i, %_ZNSt11char_traitsIcE7compareEPKcS2_m.exit.i.i ], [ %.not.i.i3, %_ZNSt11char_traitsIcE7compareEPKcS2_m.exit.i.i1 ], [ %.not.i.i8, %_ZNSt11char_traitsIcE7compareEPKcS2_m.exit.i.i6 ], [ %.not.i.i13, %_ZNSt11char_traitsIcE7compareEPKcS2_m.exit.i.i11 ], [ %.not.i.i18, %_ZNSt11char_traitsIcE7compareEPKcS2_m.exit.i.i16 ], [ %.not.i.i23, %_ZNSt11char_traitsIcE7compareEPKcS2_m.exit.i.i21 ]
  %6 = zext i1 %.shrunk to i32
  ret i32 %6
}